Certificate:
    Data:
        Version: 3 (0x2)
        Serial Number:
            b9:56:ca:1b:5d:75:45:3f
    Signature Algorithm: sha256WithRSAEncryption
        Issuer: C=SV, ST=Santa Ana, O=UES, OU=FMOcc, CN=www.tamales.com/emailAddress=gg13008@ues.edu.sv
        Validity
            Not Before: Apr  2 02:16:53 2018 GMT
            Not After : Mar 30 02:16:53 2028 GMT
        Subject: C=SV, ST=Santa Ana, O=UES, OU=FMOcc, CN=www.tamales.com/emailAddress=gg13008@ues.edu.sv
        Subject Public Key Info:
            Public Key Algorithm: rsaEncryption
                Public-Key: (4096 bit)
                Modulus:
                    00:b6:de:11:77:aa:f9:77:1f:61:09:ce:66:61:07:
                    59:cc:cb:42:71:cd:6e:a7:8d:b5:3b:fd:50:f2:96:
                    c3:bb:58:27:31:8a:fb:06:b3:9a:ad:80:db:7a:39:
                    74:cc:a0:32:88:8a:f8:d3:cd:23:3a:dd:4a:0e:fd:
                    35:92:d1:b9:72:fc:17:8d:3a:b6:de:96:11:c2:f3:
                    2c:20:d2:a8:f1:54:62:cc:60:91:c6:ce:2b:63:c7:
                    e2:ce:a2:a9:a3:f2:85:bb:09:ec:8d:6c:63:ee:17:
                    1a:f5:74:ab:9b:11:34:2f:3f:fa:53:a4:9a:f2:23:
                    4c:4a:9f:d2:51:dd:5f:2a:6b:aa:66:6e:a3:72:7c:
                    59:63:8b:44:7b:f3:60:93:73:09:b6:f8:c5:30:e9:
                    6c:0a:b8:83:14:25:2c:2a:24:c4:19:88:a2:16:fa:
                    8e:1c:7d:e2:60:ac:e5:32:f4:07:63:ef:4e:88:38:
                    26:13:ec:88:21:3a:3d:8a:7a:cc:77:7b:2c:d2:56:
                    f2:e0:fa:86:9c:5c:22:e6:52:4f:55:cf:e2:87:f8:
                    88:9d:31:0a:e1:6d:fd:28:41:43:be:21:b5:96:4b:
                    61:03:50:00:e0:60:12:dc:97:4a:36:33:ae:21:7a:
                    26:4b:b2:17:03:64:ec:03:82:71:c7:9c:4e:67:96:
                    13:69:36:b6:da:bb:29:3a:fc:86:0f:ab:a1:40:b7:
                    fc:0f:d7:f7:0b:cb:79:08:8b:67:fa:dc:ad:80:c3:
                    c1:a6:34:10:26:be:90:5b:58:e4:56:fa:ab:25:6f:
                    c3:eb:0a:0f:57:44:33:51:c7:e4:35:31:5e:cc:1a:
                    42:ee:f3:36:c5:8d:6e:81:d5:95:37:aa:76:2f:3c:
                    80:85:d0:ce:96:36:1c:15:b2:3e:0c:13:39:55:b4:
                    35:78:bc:51:88:e1:af:84:50:46:d1:6a:cc:de:9b:
                    c2:3f:77:1d:13:a6:61:a1:3e:3e:c5:ce:92:a9:56:
                    d3:c9:c2:a1:88:7c:0b:b4:b2:d2:9d:4e:84:fa:b9:
                    dd:c6:27:25:bf:0e:71:59:bb:6f:94:38:2a:6d:00:
                    7e:0b:9b:7f:81:82:4c:6f:a7:ac:f7:9c:90:4d:f0:
                    76:4b:5d:b1:65:c9:5d:5c:6e:b5:45:3d:06:53:67:
                    98:62:b8:fa:d3:6d:37:67:bb:36:84:ad:72:78:fa:
                    35:e9:63:d7:0c:dc:97:61:46:3a:87:95:8e:53:1b:
                    9d:21:2e:ff:cd:22:c1:ca:bc:58:ab:a4:fc:00:a9:
                    d5:37:ae:fd:56:a8:5f:01:a5:a6:5b:97:45:25:9a:
                    af:7f:28:5a:5d:94:39:19:43:75:6b:12:1c:ec:cb:
                    f6:b1:63
                Exponent: 65537 (0x10001)
        X509v3 extensions:
            X509v3 Subject Key Identifier: 
                00:07:F2:55:66:74:DC:19:C5:36:87:53:AF:49:67:08:78:B3:DE:D6
            X509v3 Authority Key Identifier: 
                keyid:00:07:F2:55:66:74:DC:19:C5:36:87:53:AF:49:67:08:78:B3:DE:D6

            X509v3 Basic Constraints: critical
                CA:TRUE
    Signature Algorithm: sha256WithRSAEncryption
         23:d3:db:40:f5:1c:bd:8d:9f:8b:8e:7e:1b:f2:e1:2d:92:27:
         12:e4:c0:96:d1:73:84:3a:aa:70:16:e1:85:49:aa:25:61:a1:
         a9:72:d8:7f:f4:f5:1d:64:3c:62:4f:f4:d3:8f:cb:d2:ba:07:
         48:4a:be:c8:ef:92:85:b1:ee:d3:cf:01:e7:7a:bd:75:37:03:
         23:8c:43:1e:cd:b6:6f:b6:3c:0a:c6:65:3b:6c:f9:a1:49:b2:
         f2:a4:c1:12:33:6a:43:7a:54:1c:ee:f9:58:e6:2c:1b:0b:4d:
         61:36:77:f5:8f:30:50:17:d6:69:8b:5a:33:dc:c0:c4:98:69:
         53:ad:87:3a:8e:fc:3e:37:30:c8:2f:ca:2c:b0:dc:86:e5:63:
         d7:18:e8:98:e4:17:8b:a1:46:cc:1f:85:a8:43:6b:12:58:35:
         96:26:92:08:9d:ef:07:0c:d3:8a:bb:f9:0d:fc:0c:95:aa:aa:
         b4:dc:5d:a0:8c:e1:a3:b7:18:ab:90:90:c1:76:d5:71:25:e6:
         32:36:79:ab:bd:72:a0:16:73:2e:20:a6:b3:f7:2c:b1:e0:40:
         87:89:eb:e9:f8:48:3b:75:f3:77:10:82:40:31:b4:f8:dd:bf:
         e5:bd:03:ce:f0:7e:dd:4c:62:89:63:07:42:f4:d6:ae:1b:47:
         a6:b6:54:50:0e:91:23:63:41:8e:86:74:f8:68:a8:26:0b:fe:
         18:a4:92:8a:26:02:11:5a:ff:d4:1d:fe:11:70:4e:da:ae:4a:
         aa:71:11:4e:cb:76:48:eb:a8:6d:fd:3c:b2:4d:8c:b9:20:54:
         91:e6:8e:7f:66:af:b2:7f:f8:88:27:05:e4:e3:22:03:98:0e:
         11:a3:90:d8:8e:d9:4f:47:82:5f:52:bb:d2:f3:ab:01:d9:76:
         53:dc:ef:24:83:82:46:27:fc:f4:1c:a0:5d:ca:e1:ce:f0:e0:
         f9:62:9b:b1:b4:33:ca:0d:09:c9:9a:d1:e3:aa:4a:52:85:51:
         ef:80:e1:c7:95:60:97:f2:ce:80:ac:52:71:09:39:d9:68:27:
         e1:e3:17:c7:b3:01:9a:db:23:87:3e:f5:11:96:ea:33:da:ce:
         63:48:6c:0e:48:34:6c:4b:47:e2:f5:63:c2:80:f2:c4:36:50:
         1f:9e:a0:8d:6c:f2:7d:21:16:47:d4:32:6e:72:66:e3:f5:a6:
         bc:05:e1:08:d6:0b:93:f6:fd:96:46:5b:75:c3:fe:67:67:53:
         a3:53:16:11:bd:5e:71:f3:68:1f:1e:71:7c:84:63:90:38:8a:
         e0:1b:76:40:23:0d:96:e3:8e:fc:bb:ea:9b:94:ae:ed:32:b1:
         cb:85:c0:8f:3c:4e:73:a3
-----BEGIN CERTIFICATE-----
MIIFzjCCA7agAwIBAgIJALlWyhtddUU/MA0GCSqGSIb3DQEBCwUAMHwxCzAJBgNV
BAYTAlNWMRIwEAYDVQQIDAlTYW50YSBBbmExDDAKBgNVBAoMA1VFUzEOMAwGA1UE
CwwFRk1PY2MxGDAWBgNVBAMMD3d3dy50YW1hbGVzLmNvbTEhMB8GCSqGSIb3DQEJ
ARYSZ2cxMzAwOEB1ZXMuZWR1LnN2MB4XDTE4MDQwMjAyMTY1M1oXDTI4MDMzMDAy
MTY1M1owfDELMAkGA1UEBhMCU1YxEjAQBgNVBAgMCVNhbnRhIEFuYTEMMAoGA1UE
CgwDVUVTMQ4wDAYDVQQLDAVGTU9jYzEYMBYGA1UEAwwPd3d3LnRhbWFsZXMuY29t
MSEwHwYJKoZIhvcNAQkBFhJnZzEzMDA4QHVlcy5lZHUuc3YwggIiMA0GCSqGSIb3
DQEBAQUAA4ICDwAwggIKAoICAQC23hF3qvl3H2EJzmZhB1nMy0JxzW6njbU7/VDy
lsO7WCcxivsGs5qtgNt6OXTMoDKIivjTzSM63UoO/TWS0bly/BeNOrbelhHC8ywg
0qjxVGLMYJHGzitjx+LOoqmj8oW7CeyNbGPuFxr1dKubETQvP/pTpJryI0xKn9JR
3V8qa6pmbqNyfFlji0R782CTcwm2+MUw6WwKuIMUJSwqJMQZiKIW+o4cfeJgrOUy
9Adj706IOCYT7IghOj2Kesx3eyzSVvLg+oacXCLmUk9Vz+KH+IidMQrhbf0oQUO+
IbWWS2EDUADgYBLcl0o2M64heiZLshcDZOwDgnHHnE5nlhNpNrbauyk6/IYPq6FA
t/wP1/cLy3kIi2f63K2Aw8GmNBAmvpBbWORW+qslb8PrCg9XRDNRx+Q1MV7MGkLu
8zbFjW6B1ZU3qnYvPICF0M6WNhwVsj4MEzlVtDV4vFGI4a+EUEbRaszem8I/dx0T
pmGhPj7FzpKpVtPJwqGIfAu0stKdToT6ud3GJyW/DnFZu2+UOCptAH4Lm3+Bgkxv
p6z3nJBN8HZLXbFlyV1cbrVFPQZTZ5hiuPrTbTdnuzaErXJ4+jXpY9cM3JdhRjqH
lY5TG50hLv/NIsHKvFirpPwAqdU3rv1WqF8BpaZbl0Ulmq9/KFpdlDkZQ3VrEhzs
y/axYwIDAQABo1MwUTAdBgNVHQ4EFgQUAAfyVWZ03BnFNodTr0lnCHiz3tYwHwYD
VR0jBBgwFoAUAAfyVWZ03BnFNodTr0lnCHiz3tYwDwYDVR0TAQH/BAUwAwEB/zAN
BgkqhkiG9w0BAQsFAAOCAgEAI9PbQPUcvY2fi45+G/LhLZInEuTAltFzhDqqcBbh
hUmqJWGhqXLYf/T1HWQ8Yk/004/L0roHSEq+yO+ShbHu088B53q9dTcDI4xDHs22
b7Y8CsZlO2z5oUmy8qTBEjNqQ3pUHO75WOYsGwtNYTZ39Y8wUBfWaYtaM9zAxJhp
U62HOo78PjcwyC/KLLDchuVj1xjomOQXi6FGzB+FqENrElg1liaSCJ3vBwzTirv5
DfwMlaqqtNxdoIzho7cYq5CQwXbVcSXmMjZ5q71yoBZzLiCms/csseBAh4nr6fhI
O3XzdxCCQDG0+N2/5b0DzvB+3UxiiWMHQvTWrhtHprZUUA6RI2NBjoZ0+GioJgv+
GKSSiiYCEVr/1B3+EXBO2q5KqnERTst2SOuobf08sk2MuSBUkeaOf2avsn/4iCcF
5OMiA5gOEaOQ2I7ZT0eCX1K70vOrAdl2U9zvJIOCRif89BygXcrhzvDg+WKbsbQz
yg0JyZrR46pKUoVR74Dhx5Vgl/LOgKxScQk52Wgn4eMXx7MBmtsjhz71EZbqM9rO
Y0hsDkg0bEtH4vVjwoDyxDZQH56gjWzyfSEWR9QybnJm4/WmvAXhCNYLk/b9lkZb
dcP+Z2dTo1MWEb1ecfNoHx5xfIRjkDiK4Bt2QCMNluOO/Lvqm5Su7TKxy4XAjzxO
c6M=
-----END CERTIFICATE-----
