Certificate:
    Data:
        Version: 3 (0x2)
        Serial Number:
            b9:56:ca:1b:5d:75:45:41
    Signature Algorithm: sha256WithRSAEncryption
        Issuer: C=SV, ST=Santa Ana, O=UES, OU=FMOcc, CN=www.tamales.com/emailAddress=gg13008@ues.edu.sv
        Validity
            Not Before: Apr  2 02:48:21 2018 GMT
            Not After : Apr  2 02:48:21 2019 GMT
        Subject: C=SV, ST=Santa Ana, L=Santa Ana, O=FMOcc, OU=PRC, CN=www.tamales.com/emailAddress=gg13008@ues.edu.sv
        Subject Public Key Info:
            Public Key Algorithm: rsaEncryption
                Public-Key: (4096 bit)
                Modulus:
                    00:b9:83:b6:e5:31:67:85:b5:91:f5:c1:66:6a:9c:
                    e5:3a:2b:22:a2:c6:5f:05:a7:d6:e2:45:3b:ca:2d:
                    c7:b4:f1:ee:b7:e0:09:b4:02:fe:31:b9:fb:0a:41:
                    9e:54:3f:f9:5a:f3:7f:e1:fd:ca:f4:03:10:e3:67:
                    64:20:cb:90:b2:44:7f:30:7f:e1:f1:4a:51:ff:ea:
                    55:93:d2:cb:5b:86:dc:53:ca:ad:1e:f6:ea:ce:1b:
                    fb:d1:4c:c7:5a:9b:f1:42:5e:6c:2c:d1:76:8c:c5:
                    b8:0a:41:ca:47:ca:dd:a0:b0:e4:6a:7d:d5:49:f8:
                    0f:7d:7a:6a:c1:2e:44:49:c9:c5:b2:34:69:67:8b:
                    a4:c6:4d:f9:92:0c:aa:c1:4e:b1:20:41:e8:05:6f:
                    b5:d8:65:ec:61:dc:73:77:aa:44:86:1d:e6:23:4d:
                    8c:52:f5:5b:b0:68:65:a2:de:45:d3:c6:fe:8e:d4:
                    76:f3:02:fb:5e:bf:71:b9:95:33:b6:67:91:f9:36:
                    e3:44:b1:2a:05:73:8a:6b:85:ca:00:77:8a:a2:1a:
                    6a:a2:07:4c:48:89:e3:20:b9:ec:62:e7:ba:8d:96:
                    57:c5:f9:02:29:b6:75:f4:2c:c5:b0:07:89:e1:0e:
                    81:23:e4:7c:31:ab:10:3b:fa:f9:67:06:08:a8:c7:
                    1a:c7:bf:3f:af:17:94:dd:ef:4f:51:82:55:08:0a:
                    06:d6:02:7a:6a:41:00:53:ee:8f:02:04:d8:7d:f0:
                    f8:71:83:79:1e:97:1d:46:25:46:1f:e8:a5:a0:e0:
                    f6:a0:ba:38:4f:f8:1b:f9:8a:88:51:2e:e9:c4:9d:
                    1e:20:20:45:c4:68:0b:85:57:f5:6c:c8:62:2d:b4:
                    7e:b1:66:5b:7a:ea:40:a4:74:70:92:07:d4:31:15:
                    48:e1:29:ba:cc:03:e7:dc:3d:e2:17:c1:6c:a0:fd:
                    f7:f7:d3:92:61:c5:21:13:cb:be:4f:2e:97:f9:01:
                    61:6f:cc:d4:ea:8b:fc:fc:98:04:7d:7f:10:a2:c7:
                    d4:cb:09:87:c7:b1:fa:a6:16:a0:4c:07:b4:a3:44:
                    6c:e9:e4:6a:b5:3e:78:74:9d:d5:93:ab:26:39:98:
                    c2:7a:24:d6:15:cc:8c:97:81:65:59:f3:48:d2:c3:
                    1c:15:0b:90:0e:14:f9:09:e9:63:8a:e1:38:de:7c:
                    4c:57:70:51:90:a7:74:86:97:f5:e5:65:32:77:f5:
                    2f:2c:69:79:5e:fc:5f:5f:8c:72:73:cc:69:10:12:
                    40:5b:1a:e6:b4:c0:16:41:be:4b:d8:d2:27:7f:83:
                    db:76:80:6d:d4:6b:e6:23:65:40:04:aa:58:86:2f:
                    60:fa:a5
                Exponent: 65537 (0x10001)
        X509v3 extensions:
            X509v3 Basic Constraints: 
                CA:FALSE
            Netscape Comment: 
                OpenSSL Generated Certificate
            X509v3 Subject Key Identifier: 
                4B:75:6C:86:1A:43:06:98:AD:39:08:C3:BB:F1:44:44:13:AE:61:C8
            X509v3 Authority Key Identifier: 
                keyid:00:07:F2:55:66:74:DC:19:C5:36:87:53:AF:49:67:08:78:B3:DE:D6

    Signature Algorithm: sha256WithRSAEncryption
         36:09:97:f8:13:53:23:48:2f:bb:fc:a4:28:ca:40:8c:c1:6a:
         d7:4a:45:19:ba:6e:66:d6:6e:4f:cc:47:e0:27:16:6e:8e:dd:
         26:03:5b:08:51:f2:b5:82:f5:90:fa:81:95:89:d1:97:c8:ca:
         fc:3d:7f:5b:5e:74:92:a4:89:d9:14:59:19:16:88:a2:9b:83:
         f3:51:5e:25:33:0b:2b:a6:1b:9f:01:8a:c3:f0:cd:38:44:46:
         1d:e7:40:95:9c:ae:1c:fb:91:92:c6:4e:bb:6c:e4:96:ae:23:
         98:32:4e:c7:a1:d4:fa:83:0f:d3:06:54:fc:ba:62:6c:fd:a7:
         be:6a:ec:cc:d0:bb:e3:4d:8e:46:02:6f:ae:8e:a5:12:12:8a:
         1f:00:25:5b:5d:8f:c7:01:40:b3:95:d5:05:85:78:f3:67:84:
         99:e4:de:24:30:b1:b2:cc:be:04:de:ef:a6:a7:1b:a3:4e:cf:
         03:3e:bb:8b:63:54:ed:ca:a3:b8:a2:19:1a:c1:92:ef:68:af:
         7e:09:d2:1c:ad:30:d9:51:e3:06:4d:ac:46:e2:ed:d9:ef:c9:
         fa:57:0c:0e:fd:83:6f:59:c2:a9:c5:cd:46:2a:00:8d:3c:1d:
         f8:74:56:f8:7a:e2:cc:9b:02:15:f0:ff:d0:c6:bc:ed:3e:e0:
         03:9b:f1:c7:90:a7:d9:65:a3:81:cb:19:eb:b7:66:3f:db:e1:
         92:d0:11:57:f3:b7:98:9b:58:eb:d9:88:dc:a7:ca:04:1d:bc:
         fb:46:1a:52:35:ae:0c:15:55:73:d6:8a:eb:2c:48:b1:2d:86:
         5d:0f:12:87:b4:04:1f:fa:37:cd:b1:e5:e3:64:d1:7d:aa:e7:
         83:78:a9:52:1c:82:10:a3:30:3d:40:c1:1c:45:c5:af:ea:09:
         70:bf:03:3d:e0:a5:e2:a8:a3:35:15:bf:72:a6:40:00:b5:98:
         d9:8e:d3:95:cd:99:23:88:09:fe:38:eb:79:ef:dc:a2:46:f4:
         f7:96:65:ce:45:08:c0:fc:d2:fa:7f:8d:86:dc:5c:3c:99:38:
         97:85:9b:5b:c4:ff:9c:bc:fb:b7:d4:d3:3c:6e:63:3a:f2:db:
         d3:da:c0:1a:23:94:2d:12:61:ea:a9:ff:00:71:11:94:14:e7:
         1b:9a:41:45:16:ae:61:23:e1:fb:39:aa:71:06:34:2a:00:2e:
         b8:b1:13:23:db:d1:80:1b:69:56:8b:2a:2f:a2:00:f0:bc:f3:
         a4:f1:42:ae:77:3e:77:e1:74:58:a6:21:fb:1e:03:47:a8:0f:
         07:9e:88:4b:87:4f:f4:c4:c1:a1:9d:1e:22:15:02:12:b8:10:
         ca:d5:fb:b8:fa:c0:f7:b3
-----BEGIN CERTIFICATE-----
MIIGCzCCA/OgAwIBAgIJALlWyhtddUVBMA0GCSqGSIb3DQEBCwUAMHwxCzAJBgNV
BAYTAlNWMRIwEAYDVQQIDAlTYW50YSBBbmExDDAKBgNVBAoMA1VFUzEOMAwGA1UE
CwwFRk1PY2MxGDAWBgNVBAMMD3d3dy50YW1hbGVzLmNvbTEhMB8GCSqGSIb3DQEJ
ARYSZ2cxMzAwOEB1ZXMuZWR1LnN2MB4XDTE4MDQwMjAyNDgyMVoXDTE5MDQwMjAy
NDgyMVowgZAxCzAJBgNVBAYTAlNWMRIwEAYDVQQIDAlTYW50YSBBbmExEjAQBgNV
BAcMCVNhbnRhIEFuYTEOMAwGA1UECgwFRk1PY2MxDDAKBgNVBAsMA1BSQzEYMBYG
A1UEAwwPd3d3LnRhbWFsZXMuY29tMSEwHwYJKoZIhvcNAQkBFhJnZzEzMDA4QHVl
cy5lZHUuc3YwggIiMA0GCSqGSIb3DQEBAQUAA4ICDwAwggIKAoICAQC5g7blMWeF
tZH1wWZqnOU6KyKixl8Fp9biRTvKLce08e634Am0Av4xufsKQZ5UP/la83/h/cr0
AxDjZ2Qgy5CyRH8wf+HxSlH/6lWT0stbhtxTyq0e9urOG/vRTMdam/FCXmws0XaM
xbgKQcpHyt2gsORqfdVJ+A99emrBLkRJycWyNGlni6TGTfmSDKrBTrEgQegFb7XY
Zexh3HN3qkSGHeYjTYxS9VuwaGWi3kXTxv6O1HbzAvtev3G5lTO2Z5H5NuNEsSoF
c4prhcoAd4qiGmqiB0xIieMguexi57qNllfF+QIptnX0LMWwB4nhDoEj5HwxqxA7
+vlnBgioxxrHvz+vF5Td709RglUICgbWAnpqQQBT7o8CBNh98Phxg3kelx1GJUYf
6KWg4PagujhP+Bv5iohRLunEnR4gIEXEaAuFV/VsyGIttH6xZlt66kCkdHCSB9Qx
FUjhKbrMA+fcPeIXwWyg/ff305JhxSETy75PLpf5AWFvzNTqi/z8mAR9fxCix9TL
CYfHsfqmFqBMB7SjRGzp5Gq1Pnh0ndWTqyY5mMJ6JNYVzIyXgWVZ80jSwxwVC5AO
FPkJ6WOK4TjefExXcFGQp3SGl/XlZTJ39S8saXle/F9fjHJzzGkQEkBbGua0wBZB
vkvY0id/g9t2gG3Ua+YjZUAEqliGL2D6pQIDAQABo3sweTAJBgNVHRMEAjAAMCwG
CWCGSAGG+EIBDQQfFh1PcGVuU1NMIEdlbmVyYXRlZCBDZXJ0aWZpY2F0ZTAdBgNV
HQ4EFgQUS3VshhpDBpitOQjDu/FERBOuYcgwHwYDVR0jBBgwFoAUAAfyVWZ03BnF
NodTr0lnCHiz3tYwDQYJKoZIhvcNAQELBQADggIBADYJl/gTUyNIL7v8pCjKQIzB
atdKRRm6bmbWbk/MR+AnFm6O3SYDWwhR8rWC9ZD6gZWJ0ZfIyvw9f1tedJKkidkU
WRkWiKKbg/NRXiUzCyumG58BisPwzThERh3nQJWcrhz7kZLGTrts5JauI5gyTseh
1PqDD9MGVPy6Ymz9p75q7MzQu+NNjkYCb66OpRISih8AJVtdj8cBQLOV1QWFePNn
hJnk3iQwsbLMvgTe76anG6NOzwM+u4tjVO3Ko7iiGRrBku9or34J0hytMNlR4wZN
rEbi7dnvyfpXDA79g29ZwqnFzUYqAI08Hfh0Vvh64sybAhXw/9DGvO0+4AOb8ceQ
p9llo4HLGeu3Zj/b4ZLQEVfzt5ibWOvZiNynygQdvPtGGlI1rgwVVXPWiussSLEt
hl0PEoe0BB/6N82x5eNk0X2q54N4qVIcghCjMD1AwRxFxa/qCXC/Az3gpeKoozUV
v3KmQAC1mNmO05XNmSOICf4463nv3KJG9PeWZc5FCMD80vp/jYbcXDyZOJeFm1vE
/5y8+7fU0zxuYzry29PawBojlC0SYeqp/wBxEZQU5xuaQUUWrmEj4fs5qnEGNCoA
LrixEyPb0YAbaVaLKi+iAPC886TxQq53PnfhdFimIfseA0eoDweeiEuHT/TEwaGd
HiIVAhK4EMrV+7j6wPez
-----END CERTIFICATE-----
