Certificate:
    Data:
        Version: 3 (0x2)
        Serial Number:
            b9:56:ca:1b:5d:75:45:44
    Signature Algorithm: sha256WithRSAEncryption
        Issuer: C=SV, ST=Santa Ana, O=UES, OU=FMOcc, CN=www.tamales.com/emailAddress=gg13008@ues.edu.sv
        Validity
            Not Before: Apr 13 03:34:04 2018 GMT
            Not After : Apr 13 03:34:04 2019 GMT
        Subject: C=SV, ST=Santa Ana, L=Santa Ana, O=UES FMOCC, OU=PRC135, CN=www.tamales.com/compras/emailAddress=gg13008@ues.edu.sv
        Subject Public Key Info:
            Public Key Algorithm: rsaEncryption
                Public-Key: (4096 bit)
                Modulus:
                    00:ab:49:36:61:d2:88:7b:b6:02:ed:8c:f8:f3:5d:
                    10:48:c5:7d:a1:44:48:8f:76:3c:25:48:28:89:fc:
                    97:f7:e3:4e:25:06:55:36:8f:30:ad:27:75:57:ce:
                    2a:9b:1d:95:7a:e6:96:5f:bf:92:f8:ad:cd:7e:30:
                    2c:78:61:c4:22:0b:92:f9:87:2e:7c:a0:9e:f0:b7:
                    a0:b0:0b:49:d4:a9:6d:37:b2:b5:52:1a:5a:ab:f3:
                    21:bc:60:4d:79:ce:9d:a5:6e:82:8d:05:f1:c3:10:
                    47:30:93:7f:0e:03:c7:4f:e7:60:7f:26:98:14:c4:
                    28:94:79:1f:64:2f:e6:8d:9d:7f:d8:80:7d:53:d4:
                    42:2d:54:76:a9:bb:62:11:45:1e:49:fa:0f:9c:5b:
                    92:04:4b:b8:bb:06:86:16:d1:bf:80:f3:83:ba:9c:
                    8d:61:f7:87:8b:7d:2b:16:65:d3:d1:9a:07:aa:38:
                    58:ff:f6:f0:94:a8:11:ef:27:6e:4d:a1:32:c4:af:
                    db:f9:54:0e:00:71:f9:d3:19:89:4e:d8:bd:b8:cd:
                    53:1a:0c:64:f0:45:f4:13:15:20:77:8d:66:26:16:
                    58:7b:af:05:86:fd:e6:11:fe:96:3d:15:5b:0a:ba:
                    7a:57:96:ca:27:b6:01:9c:5f:00:11:04:db:62:2e:
                    72:78:39:d1:74:53:57:8c:44:d7:11:9e:f1:e6:cc:
                    3b:64:6f:71:90:a5:bf:39:dd:b5:a4:82:17:c8:ec:
                    00:73:e7:b3:7b:b2:c5:e0:e3:c7:0d:7a:69:4f:d2:
                    8e:44:f1:f3:86:17:74:f4:d9:23:e5:b6:7f:74:0d:
                    d5:41:92:be:40:1e:4f:04:9c:e9:42:5f:28:c0:0b:
                    fd:e0:50:52:63:cf:18:c2:c6:04:3b:0f:e2:81:22:
                    42:fe:98:35:d0:cf:9f:c8:37:d8:2e:f7:ef:24:73:
                    7c:9d:d8:d6:c9:fc:e5:c3:5c:06:15:48:da:df:62:
                    99:86:76:72:b1:6c:a4:85:4a:49:31:1e:40:17:ac:
                    4d:a7:cf:d9:79:6a:7a:b4:7e:42:15:d2:d8:e3:d3:
                    0e:6b:bf:c3:6b:f9:a8:31:3c:17:f5:36:03:7b:5d:
                    f9:c5:c8:c3:b8:5f:06:c6:9b:43:4b:02:71:e1:b7:
                    9c:35:6f:25:d3:c8:62:2e:86:9e:e2:31:48:e4:e9:
                    42:7f:a6:02:39:31:20:46:44:b7:6d:fc:1d:28:d9:
                    a6:5a:dd:54:e2:53:6e:69:e1:a4:9a:bb:ec:43:8d:
                    00:08:1f:69:bf:9d:06:f6:cc:4d:86:18:f5:b2:35:
                    ef:64:ea:c7:97:b5:63:fc:9a:78:f2:6a:ff:8c:93:
                    d5:e3:fd
                Exponent: 65537 (0x10001)
        X509v3 extensions:
            X509v3 Basic Constraints: 
                CA:FALSE
            Netscape Comment: 
                OpenSSL Generated Certificate
            X509v3 Subject Key Identifier: 
                9D:9C:55:8E:9A:FB:53:9C:D7:90:ED:B7:E5:20:7E:5B:2F:01:3F:78
            X509v3 Authority Key Identifier: 
                keyid:00:07:F2:55:66:74:DC:19:C5:36:87:53:AF:49:67:08:78:B3:DE:D6

    Signature Algorithm: sha256WithRSAEncryption
         32:94:3b:b1:8b:78:10:df:82:09:b1:83:72:a3:3b:7a:a9:a1:
         48:78:d6:27:45:67:c0:a7:49:55:51:45:3e:8b:e2:3c:bf:4e:
         3c:3f:fe:68:3d:1a:fb:d2:69:62:27:91:ac:e7:cf:35:21:6d:
         ad:1a:ce:38:94:dc:79:1f:45:67:c8:1c:b2:f2:34:a8:11:f3:
         10:6e:1e:04:e4:de:19:18:20:8d:8a:1d:9b:ef:82:4a:00:96:
         bc:99:b0:2b:5f:91:91:0e:40:1d:a1:4d:e9:cd:8f:6e:65:60:
         ef:94:d0:67:1e:55:4e:ad:60:35:1d:e5:54:67:61:4b:78:c0:
         74:a6:1e:51:5e:26:4e:a6:04:3e:41:41:2a:43:ae:77:52:a9:
         41:14:bb:8a:c8:59:2d:a5:df:a1:d3:fe:88:8f:ca:a1:5d:a3:
         e1:65:c4:d5:de:5c:5b:ad:09:0c:a3:41:94:27:65:84:ba:c6:
         cd:a5:0e:0c:50:ab:e7:e8:09:a8:1b:c9:cf:9c:99:74:be:95:
         3e:3b:17:3b:96:15:d4:de:8c:34:60:22:8a:22:29:a2:47:c6:
         bf:bc:19:a6:8a:38:eb:c4:c9:cc:73:df:77:ca:12:76:ed:f6:
         0a:ce:65:6a:dc:d6:70:5d:4a:2d:24:5d:9e:7f:d1:59:cb:f8:
         6e:7b:81:f9:a1:ae:b3:80:c5:7a:ee:50:d0:df:4c:a6:11:08:
         a6:0f:f0:59:ea:c5:cc:fa:b9:a4:7e:5e:d6:88:34:70:f9:33:
         23:1b:05:31:8e:c5:e3:cc:70:73:87:2d:19:04:a6:12:d6:8c:
         36:a3:92:0e:20:ba:f8:2b:b0:0a:a4:86:5f:54:04:ce:47:0a:
         31:eb:ba:ae:fd:31:d4:2b:db:b3:e7:e5:25:c6:2e:6d:7d:67:
         d0:57:b1:70:8e:21:38:8f:79:ec:ff:92:b0:e7:8a:53:7b:d8:
         a8:a6:9b:8f:b8:57:ec:1f:3a:cd:a6:25:db:5a:31:ad:1d:88:
         94:45:e8:75:65:d0:98:4e:1a:61:07:8b:25:cd:6d:62:17:a6:
         5f:21:03:14:25:91:1a:94:f9:ca:1b:48:d8:23:63:14:23:78:
         ac:fc:3e:31:28:12:ae:db:23:d9:a6:53:16:5a:70:81:dd:bf:
         be:37:31:cf:fd:07:7c:20:72:96:31:e0:64:6f:4e:38:b9:15:
         21:46:50:ed:77:93:e6:46:61:eb:0e:de:e5:84:98:61:fa:ab:
         1a:79:10:d5:53:56:85:20:da:63:ac:e0:d2:a6:d7:16:4a:12:
         4a:18:bb:b5:ee:48:59:1f:f5:fb:31:14:8b:f8:8f:3f:1c:76:
         d4:33:46:9b:68:f2:be:f3
-----BEGIN CERTIFICATE-----
MIIGGjCCBAKgAwIBAgIJALlWyhtddUVEMA0GCSqGSIb3DQEBCwUAMHwxCzAJBgNV
BAYTAlNWMRIwEAYDVQQIDAlTYW50YSBBbmExDDAKBgNVBAoMA1VFUzEOMAwGA1UE
CwwFRk1PY2MxGDAWBgNVBAMMD3d3dy50YW1hbGVzLmNvbTEhMB8GCSqGSIb3DQEJ
ARYSZ2cxMzAwOEB1ZXMuZWR1LnN2MB4XDTE4MDQxMzAzMzQwNFoXDTE5MDQxMzAz
MzQwNFowgZ8xCzAJBgNVBAYTAlNWMRIwEAYDVQQIDAlTYW50YSBBbmExEjAQBgNV
BAcMCVNhbnRhIEFuYTESMBAGA1UECgwJVUVTIEZNT0NDMQ8wDQYDVQQLDAZQUkMx
MzUxIDAeBgNVBAMMF3d3dy50YW1hbGVzLmNvbS9jb21wcmFzMSEwHwYJKoZIhvcN
AQkBFhJnZzEzMDA4QHVlcy5lZHUuc3YwggIiMA0GCSqGSIb3DQEBAQUAA4ICDwAw
ggIKAoICAQCrSTZh0oh7tgLtjPjzXRBIxX2hREiPdjwlSCiJ/Jf3404lBlU2jzCt
J3VXziqbHZV65pZfv5L4rc1+MCx4YcQiC5L5hy58oJ7wt6CwC0nUqW03srVSGlqr
8yG8YE15zp2lboKNBfHDEEcwk38OA8dP52B/JpgUxCiUeR9kL+aNnX/YgH1T1EIt
VHapu2IRRR5J+g+cW5IES7i7BoYW0b+A84O6nI1h94eLfSsWZdPRmgeqOFj/9vCU
qBHvJ25NoTLEr9v5VA4AcfnTGYlO2L24zVMaDGTwRfQTFSB3jWYmFlh7rwWG/eYR
/pY9FVsKunpXlsontgGcXwARBNtiLnJ4OdF0U1eMRNcRnvHmzDtkb3GQpb853bWk
ghfI7ABz57N7ssXg48cNemlP0o5E8fOGF3T02SPltn90DdVBkr5AHk8EnOlCXyjA
C/3gUFJjzxjCxgQ7D+KBIkL+mDXQz5/IN9gu9+8kc3yd2NbJ/OXDXAYVSNrfYpmG
dnKxbKSFSkkxHkAXrE2nz9l5anq0fkIV0tjj0w5rv8Nr+agxPBf1NgN7XfnFyMO4
XwbGm0NLAnHht5w1byXTyGIuhp7iMUjk6UJ/pgI5MSBGRLdt/B0o2aZa3VTiU25p
4aSau+xDjQAIH2m/nQb2zE2GGPWyNe9k6seXtWP8mnjyav+Mk9Xj/QIDAQABo3sw
eTAJBgNVHRMEAjAAMCwGCWCGSAGG+EIBDQQfFh1PcGVuU1NMIEdlbmVyYXRlZCBD
ZXJ0aWZpY2F0ZTAdBgNVHQ4EFgQUnZxVjpr7U5zXkO235SB+Wy8BP3gwHwYDVR0j
BBgwFoAUAAfyVWZ03BnFNodTr0lnCHiz3tYwDQYJKoZIhvcNAQELBQADggIBADKU
O7GLeBDfggmxg3KjO3qpoUh41idFZ8CnSVVRRT6L4jy/Tjw//mg9GvvSaWInkazn
zzUhba0azjiU3HkfRWfIHLLyNKgR8xBuHgTk3hkYII2KHZvvgkoAlryZsCtfkZEO
QB2hTenNj25lYO+U0GceVU6tYDUd5VRnYUt4wHSmHlFeJk6mBD5BQSpDrndSqUEU
u4rIWS2l36HT/oiPyqFdo+FlxNXeXFutCQyjQZQnZYS6xs2lDgxQq+foCagbyc+c
mXS+lT47FzuWFdTejDRgIooiKaJHxr+8GaaKOOvEycxz33fKEnbt9grOZWrc1nBd
Si0kXZ5/0VnL+G57gfmhrrOAxXruUNDfTKYRCKYP8Fnqxcz6uaR+XtaINHD5MyMb
BTGOxePMcHOHLRkEphLWjDajkg4guvgrsAqkhl9UBM5HCjHruq79MdQr27Pn5SXG
Lm19Z9BXsXCOITiPeez/krDnilN72Kimm4+4V+wfOs2mJdtaMa0diJRF6HVl0JhO
GmEHiyXNbWIXpl8hAxQlkRqU+cobSNgjYxQjeKz8PjEoEq7bI9mmUxZacIHdv743
Mc/9B3wgcpYx4GRvTji5FSFGUO13k+ZGYesO3uWEmGH6qxp5ENVTVoUg2mOs4NKm
1xZKEkoYu7XuSFkf9fsxFIv4jz8cdtQzRpto8r7z
-----END CERTIFICATE-----
