Certificate:
    Data:
        Version: 3 (0x2)
        Serial Number:
            b9:56:ca:1b:5d:75:45:42
    Signature Algorithm: sha256WithRSAEncryption
        Issuer: C=SV, ST=Santa Ana, O=UES, OU=FMOcc, CN=www.tamales.com/emailAddress=gg13008@ues.edu.sv
        Validity
            Not Before: Apr  3 02:24:18 2018 GMT
            Not After : Apr  3 02:24:18 2019 GMT
        Subject: C=SV, ST=Santa Ana, L=Santa Ana, O=UESFMOCC, OU=PRC135, CN=www.tamales.com/emailAddress=gg13008@ues.edu.sv
        Subject Public Key Info:
            Public Key Algorithm: rsaEncryption
                Public-Key: (4096 bit)
                Modulus:
                    00:fa:92:3e:1a:8c:63:96:1f:b1:ba:69:08:5f:16:
                    39:52:9f:ae:1e:51:96:83:0e:17:90:45:e5:ee:97:
                    a4:97:3c:5a:15:9c:5d:48:65:2b:4b:1e:98:81:0e:
                    f7:fe:1d:d3:eb:09:6b:a3:b5:eb:b5:2d:50:9a:30:
                    24:c6:55:7a:e4:92:43:58:1b:cf:08:28:27:a7:58:
                    95:ca:11:c3:0d:46:27:c8:21:0e:27:3c:e1:f8:bd:
                    2f:12:d0:b7:cd:22:8e:93:4f:85:c0:3d:0b:4e:e7:
                    c2:95:2a:09:b9:c0:6b:74:65:68:08:9f:73:a7:bd:
                    41:03:93:31:df:b9:c2:44:e9:ed:50:a2:c5:31:2a:
                    7a:23:c8:ed:8c:6e:79:70:fa:1c:13:50:57:86:49:
                    60:74:1a:cf:e8:0d:f7:5d:fc:f9:fe:71:0c:df:37:
                    91:e6:80:c6:39:e5:e3:04:ef:fb:c4:b9:ab:85:a5:
                    8c:6c:76:ec:eb:11:a2:26:06:fb:6b:5c:b5:64:4e:
                    f1:29:4f:b3:58:ce:20:15:dd:d5:ed:8f:50:d2:cf:
                    e6:cb:43:a7:1c:10:6c:d1:d9:db:13:48:9a:10:9d:
                    7f:74:7a:e3:b2:ce:ac:23:f1:73:2e:52:5a:38:65:
                    e7:5a:f1:db:bf:12:6b:08:28:b3:0e:a7:84:fc:12:
                    26:84:48:62:78:66:4c:63:21:28:fc:9f:89:f7:ce:
                    18:8d:33:25:11:f7:6f:08:27:d4:01:8f:b4:5a:5f:
                    7d:ec:95:5c:53:51:7c:d1:2a:a6:54:ff:80:42:7a:
                    8c:41:64:e7:c6:17:41:2d:68:27:90:dd:70:a9:d7:
                    1f:d0:dc:0d:39:e1:7e:80:a2:6f:b3:b5:b2:f6:5b:
                    c6:a5:41:67:0b:00:3b:8a:55:d2:ef:95:62:10:80:
                    8d:cb:02:57:fa:5c:ad:d6:81:d7:b8:03:b9:95:40:
                    a5:fe:44:fe:60:b6:27:72:c9:0b:c5:99:43:1d:26:
                    0a:0d:94:41:cf:1a:25:40:0e:40:49:db:a9:be:55:
                    76:13:4f:0f:22:42:e7:75:98:dd:96:c3:98:e9:97:
                    41:a3:b1:7e:8f:79:22:78:41:56:af:a2:5d:ef:ec:
                    75:6e:41:a1:fd:ad:3e:f5:ee:08:fd:d1:8a:cb:e4:
                    4c:20:2f:3c:16:ad:3c:6c:dd:e8:4f:db:8b:bb:e3:
                    cf:08:39:78:01:0b:86:4f:c0:56:79:ac:77:9d:a9:
                    1b:af:73:44:0f:ad:04:01:01:32:aa:cd:3d:bf:68:
                    10:8e:7b:3b:f5:f3:61:e0:dc:b0:6d:06:8d:a5:67:
                    80:49:92:c3:8e:2a:5f:1b:ad:c2:12:d6:02:c9:c5:
                    96:6b:ff
                Exponent: 65537 (0x10001)
        X509v3 extensions:
            X509v3 Basic Constraints: 
                CA:FALSE
            Netscape Comment: 
                OpenSSL Generated Certificate
            X509v3 Subject Key Identifier: 
                B2:52:57:6C:E9:15:D7:82:46:B6:D8:4D:8B:4A:4B:2E:96:AA:B4:BC
            X509v3 Authority Key Identifier: 
                keyid:00:07:F2:55:66:74:DC:19:C5:36:87:53:AF:49:67:08:78:B3:DE:D6

    Signature Algorithm: sha256WithRSAEncryption
         ae:85:19:70:a0:1d:80:e2:ec:08:5b:2a:15:66:1a:9d:47:64:
         ef:1b:fc:b0:8e:e8:ef:43:95:db:2d:4d:6a:23:16:54:31:b4:
         1d:3c:43:b3:5e:dc:19:e2:57:0b:90:c6:e9:fe:33:96:bb:24:
         fe:94:8f:12:d0:c7:06:5d:39:a3:76:79:26:ea:8d:f1:9b:4f:
         04:fd:27:7d:f2:a3:ee:0f:5f:5e:b3:c1:2f:99:4e:74:4d:89:
         6d:51:36:9e:c7:bf:5a:64:89:2b:17:50:c1:4c:cd:62:a2:bf:
         96:17:17:6b:89:ac:3a:07:86:64:7e:29:a2:e7:46:60:cf:71:
         7f:1d:af:9e:52:40:62:aa:08:e6:b8:bf:78:20:3d:96:80:3f:
         51:46:dd:12:35:d2:f8:36:2b:34:6c:f9:66:61:9e:49:bf:08:
         47:6d:fc:46:b4:49:a5:d5:5c:25:eb:7a:1e:a3:58:d4:a8:fb:
         41:ba:51:c1:26:d9:8e:20:a2:d0:09:b3:72:a5:3e:bf:6c:3b:
         b6:8e:dd:40:44:3f:9a:8e:83:cb:39:dc:e4:74:68:c4:bb:02:
         f2:0d:fe:a3:40:81:d8:71:7b:f8:fe:84:c2:69:81:b9:cb:4f:
         c7:a3:38:04:df:ba:ef:82:13:a4:62:40:02:f7:c1:e1:8b:1f:
         9f:d1:71:ae:ac:5a:0e:c8:3b:d2:c5:3b:11:52:78:50:8b:b1:
         f5:44:99:9a:1a:f0:33:db:62:ba:4e:3b:59:7c:83:06:eb:0c:
         4e:b7:71:82:f1:aa:b8:8e:ef:a0:52:a7:70:76:e5:dc:00:f4:
         64:0e:79:cb:6d:b6:1a:f3:11:c5:36:84:9a:97:c3:fe:16:02:
         e9:2d:8b:76:25:63:95:49:6b:f5:99:87:e5:44:68:74:8d:d4:
         d2:50:74:ca:5d:ba:0e:40:61:ff:ef:30:77:1f:04:bd:c0:ea:
         45:3f:7e:e1:c3:c8:79:08:3c:f0:f6:5c:20:d6:88:1f:b2:00:
         77:b1:44:1f:7f:75:06:03:0f:ba:9f:9e:74:73:2c:4e:40:7d:
         30:60:8a:1d:15:d7:0d:36:bb:4f:f1:33:4f:bd:04:f7:9b:d8:
         c8:65:dd:fe:0a:80:f3:4b:d9:f1:16:a0:37:43:c7:d0:d7:53:
         6e:6d:9c:54:dd:10:08:fa:fe:f6:f7:e4:a4:67:90:fa:e3:63:
         62:6b:ed:17:49:73:8e:bb:08:a3:99:20:12:ec:1b:4c:7d:22:
         e5:e1:5b:55:a4:d1:70:d9:7a:d4:24:98:c9:ae:b5:3c:2e:f2:
         fa:c9:85:1c:fe:02:11:98:68:3e:75:9c:62:7c:83:7a:b2:e6:
         77:73:7d:03:a9:fb:a3:9c
-----BEGIN CERTIFICATE-----
MIIGETCCA/mgAwIBAgIJALlWyhtddUVCMA0GCSqGSIb3DQEBCwUAMHwxCzAJBgNV
BAYTAlNWMRIwEAYDVQQIDAlTYW50YSBBbmExDDAKBgNVBAoMA1VFUzEOMAwGA1UE
CwwFRk1PY2MxGDAWBgNVBAMMD3d3dy50YW1hbGVzLmNvbTEhMB8GCSqGSIb3DQEJ
ARYSZ2cxMzAwOEB1ZXMuZWR1LnN2MB4XDTE4MDQwMzAyMjQxOFoXDTE5MDQwMzAy
MjQxOFowgZYxCzAJBgNVBAYTAlNWMRIwEAYDVQQIDAlTYW50YSBBbmExEjAQBgNV
BAcMCVNhbnRhIEFuYTERMA8GA1UECgwIVUVTRk1PQ0MxDzANBgNVBAsMBlBSQzEz
NTEYMBYGA1UEAwwPd3d3LnRhbWFsZXMuY29tMSEwHwYJKoZIhvcNAQkBFhJnZzEz
MDA4QHVlcy5lZHUuc3YwggIiMA0GCSqGSIb3DQEBAQUAA4ICDwAwggIKAoICAQD6
kj4ajGOWH7G6aQhfFjlSn64eUZaDDheQReXul6SXPFoVnF1IZStLHpiBDvf+HdPr
CWujteu1LVCaMCTGVXrkkkNYG88IKCenWJXKEcMNRifIIQ4nPOH4vS8S0LfNIo6T
T4XAPQtO58KVKgm5wGt0ZWgIn3OnvUEDkzHfucJE6e1QosUxKnojyO2Mbnlw+hwT
UFeGSWB0Gs/oDfdd/Pn+cQzfN5HmgMY55eME7/vEuauFpYxsduzrEaImBvtrXLVk
TvEpT7NYziAV3dXtj1DSz+bLQ6ccEGzR2dsTSJoQnX90euOyzqwj8XMuUlo4Zeda
8du/EmsIKLMOp4T8EiaESGJ4ZkxjISj8n4n3zhiNMyUR928IJ9QBj7RaX33slVxT
UXzRKqZU/4BCeoxBZOfGF0EtaCeQ3XCp1x/Q3A054X6Aom+ztbL2W8alQWcLADuK
VdLvlWIQgI3LAlf6XK3Wgde4A7mVQKX+RP5gtidyyQvFmUMdJgoNlEHPGiVADkBJ
26m+VXYTTw8iQud1mN2Ww5jpl0GjsX6PeSJ4QVavol3v7HVuQaH9rT717gj90YrL
5EwgLzwWrTxs3ehP24u7488IOXgBC4ZPwFZ5rHedqRuvc0QPrQQBATKqzT2/aBCO
ezv182Hg3LBtBo2lZ4BJksOOKl8brcIS1gLJxZZr/wIDAQABo3sweTAJBgNVHRME
AjAAMCwGCWCGSAGG+EIBDQQfFh1PcGVuU1NMIEdlbmVyYXRlZCBDZXJ0aWZpY2F0
ZTAdBgNVHQ4EFgQUslJXbOkV14JGtthNi0pLLpaqtLwwHwYDVR0jBBgwFoAUAAfy
VWZ03BnFNodTr0lnCHiz3tYwDQYJKoZIhvcNAQELBQADggIBAK6FGXCgHYDi7Ahb
KhVmGp1HZO8b/LCO6O9DldstTWojFlQxtB08Q7Ne3BniVwuQxun+M5a7JP6UjxLQ
xwZdOaN2eSbqjfGbTwT9J33yo+4PX16zwS+ZTnRNiW1RNp7Hv1pkiSsXUMFMzWKi
v5YXF2uJrDoHhmR+KaLnRmDPcX8dr55SQGKqCOa4v3ggPZaAP1FG3RI10vg2KzRs
+WZhnkm/CEdt/Ea0SaXVXCXreh6jWNSo+0G6UcEm2Y4gotAJs3KlPr9sO7aO3UBE
P5qOg8s53OR0aMS7AvIN/qNAgdhxe/j+hMJpgbnLT8ejOATfuu+CE6RiQAL3weGL
H5/Rca6sWg7IO9LFOxFSeFCLsfVEmZoa8DPbYrpOO1l8gwbrDE63cYLxqriO76BS
p3B25dwA9GQOecttthrzEcU2hJqXw/4WAukti3YlY5VJa/WZh+VEaHSN1NJQdMpd
ug5AYf/vMHcfBL3A6kU/fuHDyHkIPPD2XCDWiB+yAHexRB9/dQYDD7qfnnRzLE5A
fTBgih0V1w02u0/xM0+9BPeb2Mhl3f4KgPNL2fEWoDdDx9DXU25tnFTdEAj6/vb3
5KRnkPrjY2Jr7RdJc467CKOZIBLsG0x9IuXhW1Wk0XDZetQkmMmutTwu8vrJhRz+
AhGYaD51nGJ8g3qy5ndzfQOp+6Oc
-----END CERTIFICATE-----
